; Function Attrs: mustprogress uwtable
define internal fastcc void @"_ZZN11V3ExecGraph18addMTaskToFunctionERKNS_14ThreadScheduleEjP8AstCFuncPK9ExecMTaskENK3$_0clERKNSt7__cxx1112basic_stringIcSt11char_traitsIcESaIcEEE"(ptr %.0.val, ptr %.8.val, ptr noundef nonnull align 8 dereferenceable(32) %0) unnamed_addr #3 align 2 personality ptr @__gxx_personality_v0 {
  %2 = tail call noalias noundef nonnull dereferenceable(152) ptr @_Znwm(i64 noundef 152) #23
  invoke void @_ZN7AstNodeC2E6VNTypeP8FileLine(ptr noundef nonnull align 8 dereferenceable(152) %2, i16 348, ptr noundef %.8.val)
          to label %.noexc unwind label %8

.noexc:                                           ; preds = %1
  store ptr getelementptr inbounds inrange(-16, 296) ({ [39 x ptr] }, ptr @_ZTV8AstCStmt, i64 0, i32 0, i64 2), ptr %2, align 8
  %3 = invoke noalias noundef nonnull dereferenceable(192) ptr @_Znwm(i64 noundef 192) #23
          to label %.noexc3 unwind label %8

.noexc3:                                          ; preds = %.noexc
  invoke void @_ZN7AstNodeC2E6VNTypeP8FileLine(ptr noundef nonnull align 8 dereferenceable(152) %3, i16 419, ptr noundef %.8.val)
          to label %.noexc.i unwind label %6

.noexc.i:                                         ; preds = %.noexc3
  store ptr getelementptr inbounds inrange(-16, 296) ({ [39 x ptr] }, ptr @_ZTV11AstNodeText, i64 0, i32 0, i64 2), ptr %3, align 8
  %4 = getelementptr inbounds i8, ptr %3, i64 152
  invoke void @_ZNSt7__cxx1112basic_stringIcSt11char_traitsIcESaIcEEC1ERKS4_(ptr noundef nonnull align 8 dereferenceable(32) %4, ptr noundef nonnull align 8 dereferenceable(32) %0)
          to label %_ZN8AstCStmt9addExprspEP7AstNode.exit.i unwind label %6

_ZN8AstCStmt9addExprspEP7AstNode.exit.i:          ; preds = %.noexc.i
  %5 = getelementptr inbounds i8, ptr %3, i64 184
  store i8 1, ptr %5, align 8
  store ptr getelementptr inbounds inrange(-16, 296) ({ [39 x ptr] }, ptr @_ZTV7AstText, i64 0, i32 0, i64 2), ptr %3, align 8
  invoke void @_ZN7AstNode7addOp1pEPS_(ptr noundef nonnull align 8 dereferenceable(152) %2, ptr noundef nonnull %3)
          to label %_ZN8AstCStmtC2EP8FileLineRKNSt7__cxx1112basic_stringIcSt11char_traitsIcESaIcEEE.exit unwind label %8

6:                                                ; preds = %.noexc.i, %.noexc3
  %7 = landingpad { ptr, i32 }
          cleanup
  tail call void @_ZdlPv(ptr noundef nonnull %3) #24
  br label %.body

_ZN8AstCStmtC2EP8FileLineRKNSt7__cxx1112basic_stringIcSt11char_traitsIcESaIcEEE.exit: ; preds = %_ZN8AstCStmt9addExprspEP7AstNode.exit.i
  tail call void @_ZN7AstNode7addOp3pEPS_(ptr noundef nonnull align 8 dereferenceable(152) %.0.val, ptr noundef nonnull %2)
  ret void

8:                                                ; preds = %_ZN8AstCStmt9addExprspEP7AstNode.exit.i, %.noexc, %1
  %9 = landingpad { ptr, i32 }
          cleanup
  br label %.body

.body:                                            ; preds = %6, %8
  %eh.lpad-body = phi { ptr, i32 } [ %9, %8 ], [ %7, %6 ]
  tail call void @_ZdlPv(ptr noundef nonnull %2) #24
  resume { ptr, i32 } %eh.lpad-body
}